target datalayout = "e-m:e-p270:32:32-p271:32:32-p272:64:64-i64:64-i128:128-f80:128-n8:16:32:64-S128"
target triple = "x86_64-pc-linux-gnu"

%struct.Vec_Int_t_ = type { i32, i32, ptr }

; Function Attrs: nounwind uwtable
define i32 @Acec_TreeWhichPoint(ptr noundef %0, i32 noundef %1, i32 noundef %2) #0 {
  %4 = alloca i32, align 4
  %5 = alloca ptr, align 8
  %6 = alloca i32, align 4
  %7 = alloca i32, align 4
  %8 = alloca i32, align 4
  store ptr %0, ptr %5, align 8
  store i32 %1, ptr %6, align 4
  store i32 %2, ptr %7, align 4
  store i32 0, ptr %8, align 4
  br label %9

9:                                                ; preds = %24, %3
  %10 = load i32, ptr %8, align 4
  %11 = icmp slt i32 %10, 5
  br i1 %11, label %12, label %27

12:                                               ; preds = %9
  %13 = load ptr, ptr %5, align 8
  %14 = load i32, ptr %6, align 4
  %15 = mul nsw i32 6, %14
  %16 = load i32, ptr %8, align 4
  %17 = add nsw i32 %15, %16
  %18 = call i32 @Vec_IntEntry(ptr noundef %13, i32 noundef %17)
  %19 = load i32, ptr %7, align 4
  %20 = icmp eq i32 %18, %19
  br i1 %20, label %21, label %23

21:                                               ; preds = %12
  %22 = load i32, ptr %8, align 4
  store i32 %22, ptr %4, align 4
  br label %28

23:                                               ; preds = %12
  br label %24

24:                                               ; preds = %23
  %25 = load i32, ptr %8, align 4
  %26 = add nsw i32 %25, 1
  store i32 %26, ptr %8, align 4
  br label %9, !llvm.loop !36

27:                                               ; preds = %9
  store i32 -1, ptr %4, align 4
  br label %28

28:                                               ; preds = %27, %21
  %29 = load i32, ptr %4, align 4
  ret i32 %29
}

; Function Attrs: nounwind uwtable
define internal i32 @Vec_IntEntry(ptr noundef %0, i32 noundef %1) #0 {
  %3 = alloca ptr, align 8
  %4 = alloca i32, align 4
  store ptr %0, ptr %3, align 8
  store i32 %1, ptr %4, align 4
  %5 = load ptr, ptr %3, align 8
  %6 = getelementptr inbounds %struct.Vec_Int_t_, ptr %5, i32 0, i32 2
  %7 = load ptr, ptr %6, align 8
  %8 = load i32, ptr %4, align 4
  %9 = sext i32 %8 to i64
  %10 = getelementptr inbounds i32, ptr %7, i64 %9
  %11 = load i32, ptr %10, align 4
  ret i32 %11
}

; Function Attrs: nounwind uwtable
define internal i32 @Abc_Var2Lit(i32 noundef %0, i32 noundef %1) #0 {
  %3 = alloca i32, align 4
  %4 = alloca i32, align 4
  store i32 %0, ptr %3, align 4
  store i32 %1, ptr %4, align 4
  %5 = load i32, ptr %3, align 4
  %6 = load i32, ptr %3, align 4
  %7 = add nsw i32 %5, %6
  %8 = load i32, ptr %4, align 4
  %9 = add nsw i32 %7, %8
  ret i32 %9
}

; Function Attrs: nounwind uwtable
define void @Acec_TreeFindTrees_rec(ptr noundef %0, ptr noundef %1, i32 noundef %2, i32 noundef %3, ptr noundef %4, ptr noundef %5) #0 {
  %7 = alloca ptr, align 8
  %8 = alloca ptr, align 8
  %9 = alloca i32, align 4
  %10 = alloca i32, align 4
  %11 = alloca ptr, align 8
  %12 = alloca ptr, align 8
  %13 = alloca i32, align 4
  %14 = alloca i32, align 4
  store ptr %0, ptr %7, align 8
  store ptr %1, ptr %8, align 8
  store i32 %2, ptr %9, align 4
  store i32 %3, ptr %10, align 4
  store ptr %4, ptr %11, align 8
  store ptr %5, ptr %12, align 8
  %15 = load ptr, ptr %8, align 8
  %16 = load i32, ptr %9, align 4
  %17 = call i32 @Abc_Var2Lit(i32 noundef %16, i32 noundef 1)
  %18 = call i32 @Vec_IntEntry(ptr noundef %15, i32 noundef %17)
  store i32 %18, ptr %13, align 4
  %19 = load ptr, ptr %8, align 8
  %20 = load i32, ptr %9, align 4
  %21 = call i32 @Abc_Var2Lit(i32 noundef %20, i32 noundef 0)
  %22 = call i32 @Vec_IntEntry(ptr noundef %19, i32 noundef %21)
  store i32 %22, ptr %14, align 4
  %23 = load i32, ptr %13, align 4
  %24 = icmp slt i32 %23, 0
  br i1 %24, label %28, label %25

25:                                               ; preds = %6
  %26 = load i32, ptr %14, align 4
  %27 = icmp slt i32 %26, 0
  br i1 %27, label %28, label %29

28:                                               ; preds = %25, %6
  br label %53

29:                                               ; preds = %25
  %30 = load ptr, ptr %7, align 8
  %31 = load ptr, ptr %8, align 8
  %32 = load i32, ptr %13, align 4
  %33 = load ptr, ptr %7, align 8
  %34 = load i32, ptr %13, align 4
  %35 = load i32, ptr %9, align 4
  %36 = call i32 @Acec_TreeWhichPoint(ptr noundef %33, i32 noundef %34, i32 noundef %35)
  %37 = icmp eq i32 %36, 4
  br i1 %37, label %38, label %41

38:                                               ; preds = %29
  %39 = load i32, ptr %10, align 4
  %40 = sub nsw i32 %39, 1
  br label %43

41:                                               ; preds = %29
  %42 = load i32, ptr %10, align 4
  br label %43

43:                                               ; preds = %41, %38
  %44 = phi i32 [ %40, %38 ], [ %42, %41 ]
  %45 = load ptr, ptr %11, align 8
  %46 = load ptr, ptr %12, align 8
  call void @Acec_TreeFindTrees2_rec(ptr noundef %30, ptr noundef %31, i32 noundef %32, i32 noundef %44, ptr noundef %45, ptr noundef %46)
  %47 = load ptr, ptr %7, align 8
  %48 = load ptr, ptr %8, align 8
  %49 = load i32, ptr %14, align 4
  %50 = load i32, ptr %10, align 4
  %51 = load ptr, ptr %11, align 8
  %52 = load ptr, ptr %12, align 8
  call void @Acec_TreeFindTrees2_rec(ptr noundef %47, ptr noundef %48, i32 noundef %49, i32 noundef %50, ptr noundef %51, ptr noundef %52)
  br label %53

53:                                               ; preds = %43, %28
  ret void
}