; Function Attrs: nounwind uwtable
define void @Acec_TreeFindTrees_rec(ptr noundef readonly captures(none) %0, ptr noundef readonly captures(none) %1, i32 noundef %2, i32 noundef %3, ptr noundef captures(none) %4, ptr noundef readonly captures(none) %5) local_unnamed_addr #0 {
  %7 = shl nsw i32 %2, 1
  %8 = or disjoint i32 %7, 1
  %9 = getelementptr i8, ptr %1, i64 8
  %.val23 = load ptr, ptr %9, align 8
  %10 = sext i32 %8 to i64
  %11 = getelementptr inbounds i32, ptr %.val23, i64 %10
  %12 = load i32, ptr %11, align 4
  %13 = sext i32 %7 to i64
  %14 = getelementptr inbounds i32, ptr %.val23, i64 %13
  %15 = load i32, ptr %14, align 4
  %16 = icmp slt i32 %12, 0
  %17 = icmp slt i32 %15, 0
  %or.cond = select i1 %16, i1 true, i1 %17
  br i1 %or.cond, label %29, label %18

18:                                               ; preds = %6
  %19 = mul nuw nsw i32 %12, 6
  %20 = getelementptr i8, ptr %0, i64 8
  %.val.i = load ptr, ptr %20, align 8
  %21 = zext nneg i32 %19 to i64
  %invariant.gep.i = getelementptr i32, ptr %.val.i, i64 %21
  br label %22

22:                                               ; preds = %25, %18
  %indvars.iv.i = phi i64 [ 0, %18 ], [ %indvars.iv.next.i, %25 ]
  %gep.i = getelementptr i32, ptr %invariant.gep.i, i64 %indvars.iv.i
  %23 = load i32, ptr %gep.i, align 4
  %24 = icmp eq i32 %23, %2
  br i1 %24, label %.split.loop.exit10.i, label %25

25:                                               ; preds = %22
  %indvars.iv.next.i = add nuw nsw i64 %indvars.iv.i, 1
  %exitcond.not.i = icmp eq i64 %indvars.iv.next.i, 5
  br i1 %exitcond.not.i, label %Acec_TreeWhichPoint.exit, label %22, !llvm.loop !38

.split.loop.exit10.i:                             ; preds = %22
  %26 = icmp eq i64 %indvars.iv.i, 4
  %27 = sext i1 %26 to i32
  br label %Acec_TreeWhichPoint.exit

Acec_TreeWhichPoint.exit:                         ; preds = %25, %.split.loop.exit10.i
  %.07.i = phi i32 [ %27, %.split.loop.exit10.i ], [ 0, %25 ]
  %28 = add nsw i32 %.07.i, %3
  tail call void @Acec_TreeFindTrees2_rec(ptr noundef %0, ptr noundef %1, i32 noundef %12, i32 noundef %28, ptr noundef %4, ptr noundef %5)
  tail call void @Acec_TreeFindTrees2_rec(ptr noundef %0, ptr noundef %1, i32 noundef %15, i32 noundef %3, ptr noundef %4, ptr noundef %5)
  br label %29

29:                                               ; preds = %6, %Acec_TreeWhichPoint.exit
  ret void
}